target datalayout = "e-m:e-p270:32:32-p271:32:32-p272:64:64-i64:64-i128:128-f80:128-n8:16:32:64-S128"
target triple = "x86_64-pc-linux-gnu"

%struct.evthread_lock_callbacks = type { i32, i32, ptr, ptr, ptr, ptr }
%struct.ev_token_bucket = type { i64, i64, i32 }
%struct.ev_token_bucket_cfg = type { i64, i64, i64, i64, %struct.timeval, i32 }
%struct.timeval = type { i64, i64 }
%struct.bufferevent_private = type { %struct.bufferevent, ptr, i8, i16, i16, i16, i32, i32, %struct.event_callback, i32, i32, ptr, i64, i64, ptr, %union.anon.7, ptr }
%struct.bufferevent = type { ptr, ptr, %struct.event, %struct.event, ptr, ptr, %struct.event_watermark, %struct.event_watermark, ptr, ptr, ptr, ptr, %struct.timeval, %struct.timeval, i16 }
%struct.event = type { %struct.event_callback, %union.anon.0, i32, i16, i16, ptr, %union.anon.2, %struct.timeval }
%union.anon.0 = type { %struct.anon.1 }
%struct.anon.1 = type { ptr, ptr }
%union.anon.2 = type { %struct.anon.3 }
%struct.anon.3 = type { %struct.anon.4, %struct.timeval }
%struct.anon.4 = type { ptr, ptr }
%struct.event_watermark = type { i64, i64 }
%struct.event_callback = type { %struct.anon, i16, i8, i8, %union.anon, ptr }
%struct.anon = type { ptr, ptr }
%union.anon = type { ptr }
%union.anon.7 = type { %struct.sockaddr_in6 }
%struct.sockaddr_in6 = type { i16, i16, i32, %struct.in6_addr, i32 }
%struct.in6_addr = type { %union.anon.8 }
%union.anon.8 = type { [4 x i32] }
%struct.bufferevent_rate_limit = type { %struct.anon.9, ptr, %struct.ev_token_bucket, ptr, %struct.event }
%struct.anon.9 = type { ptr, ptr }
%struct.bufferevent_rate_limit_group = type { %struct.rlim_group_member_list, %struct.ev_token_bucket, %struct.ev_token_bucket_cfg, i8, i64, i64, i32, i64, i64, %struct.event, %struct.evutil_weakrand_state, ptr }
%struct.rlim_group_member_list = type { ptr }
%struct.evutil_weakrand_state = type { i32 }

@evthread_lock_fns_ = external global %struct.evthread_lock_callbacks, align 8

; Function Attrs: inlinehint nounwind uwtable
define internal i32 @EVLOCK_TRY_LOCK_(ptr noundef %0) #4 {
  %2 = alloca i32, align 4
  %3 = alloca ptr, align 8
  %4 = alloca i32, align 4
  store ptr %0, ptr %3, align 8
  %5 = load ptr, ptr %3, align 8
  %6 = icmp ne ptr %5, null
  br i1 %6, label %7, label %18

7:                                                ; preds = %1
  %8 = load ptr, ptr getelementptr inbounds nuw (%struct.evthread_lock_callbacks, ptr @evthread_lock_fns_, i32 0, i32 4), align 8
  %9 = icmp ne ptr %8, null
  br i1 %9, label %10, label %18

10:                                               ; preds = %7
  call void @llvm.lifetime.start.p0(i64 4, ptr %4) #5
  %11 = load ptr, ptr getelementptr inbounds nuw (%struct.evthread_lock_callbacks, ptr @evthread_lock_fns_, i32 0, i32 4), align 8
  %12 = load ptr, ptr %3, align 8
  %13 = call i32 %11(i32 noundef 16, ptr noundef %12)
  store i32 %13, ptr %4, align 4
  %14 = load i32, ptr %4, align 4
  %15 = icmp ne i32 %14, 0
  %16 = xor i1 %15, true
  %17 = zext i1 %16 to i32
  store i32 %17, ptr %2, align 4
  call void @llvm.lifetime.end.p0(i64 4, ptr %4) #5
  br label %19

18:                                               ; preds = %7, %1
  store i32 1, ptr %2, align 4
  br label %19

19:                                               ; preds = %18, %10
  %20 = load i32, ptr %2, align 4
  ret i32 %20
}

; Function Attrs: nounwind uwtable
define internal ptr @bev_group_random_element_(ptr noundef %0) #0 {
  %2 = alloca ptr, align 8
  %3 = alloca ptr, align 8
  %4 = alloca i32, align 4
  %5 = alloca ptr, align 8
  %6 = alloca i32, align 4
  store ptr %0, ptr %3, align 8
  call void @llvm.lifetime.start.p0(i64 4, ptr %4) #5
  call void @llvm.lifetime.start.p0(i64 8, ptr %5) #5
  %7 = load ptr, ptr %3, align 8
  %8 = getelementptr inbounds nuw %struct.bufferevent_rate_limit_group, ptr %7, i32 0, i32 6
  %9 = load i32, ptr %8, align 8
  %10 = icmp ne i32 %9, 0
  br i1 %10, label %12, label %11

11:                                               ; preds = %1
  store ptr null, ptr %2, align 8
  store i32 1, ptr %6, align 4
  br label %39

12:                                               ; preds = %1
  br label %13

13:                                               ; preds = %12
  br label %14

14:                                               ; preds = %13
  br label %15

15:                                               ; preds = %14
  %16 = load ptr, ptr %3, align 8
  %17 = getelementptr inbounds nuw %struct.bufferevent_rate_limit_group, ptr %16, i32 0, i32 10
  %18 = load ptr, ptr %3, align 8
  %19 = getelementptr inbounds nuw %struct.bufferevent_rate_limit_group, ptr %18, i32 0, i32 6
  %20 = load i32, ptr %19, align 8
  %21 = call i32 @evutil_weakrand_range_(ptr noundef %17, i32 noundef %20)
  store i32 %21, ptr %4, align 4
  %22 = load ptr, ptr %3, align 8
  %23 = getelementptr inbounds nuw %struct.bufferevent_rate_limit_group, ptr %22, i32 0, i32 0
  %24 = getelementptr inbounds nuw %struct.rlim_group_member_list, ptr %23, i32 0, i32 0
  %25 = load ptr, ptr %24, align 8
  store ptr %25, ptr %5, align 8
  br label %26

26:                                               ; preds = %30, %15
  %27 = load i32, ptr %4, align 4
  %28 = add nsw i32 %27, -1
  store i32 %28, ptr %4, align 4
  %29 = icmp ne i32 %27, 0
  br i1 %29, label %30, label %37

30:                                               ; preds = %26
  %31 = load ptr, ptr %5, align 8
  %32 = getelementptr inbounds nuw %struct.bufferevent_private, ptr %31, i32 0, i32 14
  %33 = load ptr, ptr %32, align 8
  %34 = getelementptr inbounds nuw %struct.bufferevent_rate_limit, ptr %33, i32 0, i32 0
  %35 = getelementptr inbounds nuw %struct.anon.9, ptr %34, i32 0, i32 0
  %36 = load ptr, ptr %35, align 8
  store ptr %36, ptr %5, align 8
  br label %26, !llvm.loop !10

37:                                               ; preds = %26
  %38 = load ptr, ptr %5, align 8
  store ptr %38, ptr %2, align 8
  store i32 1, ptr %6, align 4
  br label %39

39:                                               ; preds = %37, %11
  call void @llvm.lifetime.end.p0(i64 8, ptr %5) #5
  call void @llvm.lifetime.end.p0(i64 4, ptr %4) #5
  %40 = load ptr, ptr %2, align 8
  ret ptr %40
}

; Function Attrs: nounwind uwtable
define internal void @bev_group_unsuspend_writing_(ptr noundef %0) #0 {
  %2 = alloca ptr, align 8
  %3 = alloca i32, align 4
  %4 = alloca ptr, align 8
  %5 = alloca ptr, align 8
  store ptr %0, ptr %2, align 8
  call void @llvm.lifetime.start.p0(i64 4, ptr %3) #5
  store i32 0, ptr %3, align 4
  call void @llvm.lifetime.start.p0(i64 8, ptr %4) #5
  call void @llvm.lifetime.start.p0(i64 8, ptr %5) #5
  %6 = load ptr, ptr %2, align 8
  %7 = getelementptr inbounds nuw %struct.bufferevent_rate_limit_group, ptr %6, i32 0, i32 3
  %8 = load i8, ptr %7, align 8
  %9 = and i8 %8, -3
  %10 = or i8 %9, 0
  store i8 %10, ptr %7, align 8
  br label %11

11:                                               ; preds = %1
  %12 = load ptr, ptr %2, align 8
  %13 = call ptr @bev_group_random_element_(ptr noundef %12)
  store ptr %13, ptr %5, align 8
  %14 = load ptr, ptr %5, align 8
  store ptr %14, ptr %4, align 8
  br label %15

15:                                               ; preds = %43, %11
  %16 = load ptr, ptr %4, align 8
  %17 = icmp ne ptr %16, null
  br i1 %17, label %18, label %50

18:                                               ; preds = %15
  %19 = load ptr, ptr %4, align 8
  %20 = getelementptr inbounds nuw %struct.bufferevent_private, ptr %19, i32 0, i32 11
  %21 = load ptr, ptr %20, align 8
  %22 = call i32 @EVLOCK_TRY_LOCK_(ptr noundef %21)
  %23 = icmp ne i32 %22, 0
  br i1 %23, label %24, label %41

24:                                               ; preds = %18
  %25 = load ptr, ptr %4, align 8
  %26 = getelementptr inbounds nuw %struct.bufferevent_private, ptr %25, i32 0, i32 0
  call void @bufferevent_unsuspend_write_(ptr noundef %26, i16 noundef zeroext 4)
  br label %27

27:                                               ; preds = %24
  %28 = load ptr, ptr %4, align 8
  %29 = getelementptr inbounds nuw %struct.bufferevent_private, ptr %28, i32 0, i32 11
  %30 = load ptr, ptr %29, align 8
  %31 = icmp ne ptr %30, null
  br i1 %31, label %32, label %38

32:                                               ; preds = %27
  %33 = load ptr, ptr getelementptr inbounds nuw (%struct.evthread_lock_callbacks, ptr @evthread_lock_fns_, i32 0, i32 5), align 8
  %34 = load ptr, ptr %4, align 8
  %35 = getelementptr inbounds nuw %struct.bufferevent_private, ptr %34, i32 0, i32 11
  %36 = load ptr, ptr %35, align 8
  %37 = call i32 %33(i32 noundef 0, ptr noundef %36)
  br label %38

38:                                               ; preds = %32, %27
  br label %39

39:                                               ; preds = %38
  br label %40

40:                                               ; preds = %39
  br label %42

41:                                               ; preds = %18
  store i32 1, ptr %3, align 4
  br label %42

42:                                               ; preds = %41, %40
  br label %43

43:                                               ; preds = %42
  %44 = load ptr, ptr %4, align 8
  %45 = getelementptr inbounds nuw %struct.bufferevent_private, ptr %44, i32 0, i32 14
  %46 = load ptr, ptr %45, align 8
  %47 = getelementptr inbounds nuw %struct.bufferevent_rate_limit, ptr %46, i32 0, i32 0
  %48 = getelementptr inbounds nuw %struct.anon.9, ptr %47, i32 0, i32 0
  %49 = load ptr, ptr %48, align 8
  store ptr %49, ptr %4, align 8
  br label %15, !llvm.loop !8

50:                                               ; preds = %15
  %51 = load ptr, ptr %2, align 8
  %52 = getelementptr inbounds nuw %struct.bufferevent_rate_limit_group, ptr %51, i32 0, i32 0
  %53 = getelementptr inbounds nuw %struct.rlim_group_member_list, ptr %52, i32 0, i32 0
  %54 = load ptr, ptr %53, align 8
  store ptr %54, ptr %4, align 8
  br label %55

55:                                               ; preds = %89, %50
  %56 = load ptr, ptr %4, align 8
  %57 = icmp ne ptr %56, null
  br i1 %57, label %58, label %62

58:                                               ; preds = %55
  %59 = load ptr, ptr %4, align 8
  %60 = load ptr, ptr %5, align 8
  %61 = icmp ne ptr %59, %60
  br label %62

62:                                               ; preds = %58, %55
  %63 = phi i1 [ false, %55 ], [ %61, %58 ]
  br i1 %63, label %64, label %96

64:                                               ; preds = %62
  %65 = load ptr, ptr %4, align 8
  %66 = getelementptr inbounds nuw %struct.bufferevent_private, ptr %65, i32 0, i32 11
  %67 = load ptr, ptr %66, align 8
  %68 = call i32 @EVLOCK_TRY_LOCK_(ptr noundef %67)
  %69 = icmp ne i32 %68, 0
  br i1 %69, label %70, label %87

70:                                               ; preds = %64
  %71 = load ptr, ptr %4, align 8
  %72 = getelementptr inbounds nuw %struct.bufferevent_private, ptr %71, i32 0, i32 0
  call void @bufferevent_unsuspend_write_(ptr noundef %72, i16 noundef zeroext 4)
  br label %73

73:                                               ; preds = %70
  %74 = load ptr, ptr %4, align 8
  %75 = getelementptr inbounds nuw %struct.bufferevent_private, ptr %74, i32 0, i32 11
  %76 = load ptr, ptr %75, align 8
  %77 = icmp ne ptr %76, null
  br i1 %77, label %78, label %84

78:                                               ; preds = %73
  %79 = load ptr, ptr getelementptr inbounds nuw (%struct.evthread_lock_callbacks, ptr @evthread_lock_fns_, i32 0, i32 5), align 8
  %80 = load ptr, ptr %4, align 8
  %81 = getelementptr inbounds nuw %struct.bufferevent_private, ptr %80, i32 0, i32 11
  %82 = load ptr, ptr %81, align 8
  %83 = call i32 %79(i32 noundef 0, ptr noundef %82)
  br label %84

84:                                               ; preds = %78, %73
  br label %85

85:                                               ; preds = %84
  br label %86

86:                                               ; preds = %85
  br label %88

87:                                               ; preds = %64
  store i32 1, ptr %3, align 4
  br label %88

88:                                               ; preds = %87, %86
  br label %89

89:                                               ; preds = %88
  %90 = load ptr, ptr %4, align 8
  %91 = getelementptr inbounds nuw %struct.bufferevent_private, ptr %90, i32 0, i32 14
  %92 = load ptr, ptr %91, align 8
  %93 = getelementptr inbounds nuw %struct.bufferevent_rate_limit, ptr %92, i32 0, i32 0
  %94 = getelementptr inbounds nuw %struct.anon.9, ptr %93, i32 0, i32 0
  %95 = load ptr, ptr %94, align 8
  store ptr %95, ptr %4, align 8
  br label %55, !llvm.loop !9

96:                                               ; preds = %62
  br label %97

97:                                               ; preds = %96
  br label %98

98:                                               ; preds = %97
  %99 = load i32, ptr %3, align 4
  %100 = load ptr, ptr %2, align 8
  %101 = getelementptr inbounds nuw %struct.bufferevent_rate_limit_group, ptr %100, i32 0, i32 3
  %102 = trunc i32 %99 to i8
  %103 = load i8, ptr %101, align 8
  %104 = and i8 %102, 1
  %105 = shl i8 %104, 3
  %106 = and i8 %103, -9
  %107 = or i8 %106, %105
  store i8 %107, ptr %101, align 8
  call void @llvm.lifetime.end.p0(i64 8, ptr %5) #5
  call void @llvm.lifetime.end.p0(i64 8, ptr %4) #5
  call void @llvm.lifetime.end.p0(i64 4, ptr %3) #5
  ret void
}