; Function Attrs: nounwind uwtable
define internal fastcc void @bev_group_unsuspend_writing_(ptr noundef %0) unnamed_addr #3 {
  %2 = getelementptr inbounds nuw i8, ptr %0, i64 88
  %3 = load i8, ptr %2, align 8
  %4 = and i8 %3, -3
  store i8 %4, ptr %2, align 8
  %5 = getelementptr inbounds nuw i8, ptr %0, i64 112
  %6 = load i32, ptr %5, align 8
  %.not.i = icmp eq i32 %6, 0
  br i1 %.not.i, label %.preheader, label %7

7:                                                ; preds = %1
  %8 = getelementptr inbounds nuw i8, ptr %0, i64 256
  %9 = tail call i32 @evutil_weakrand_range_(ptr noundef nonnull %8, i32 noundef %6) #10
  %.011.i = load ptr, ptr %0, align 8
  %.not1012.i = icmp eq i32 %9, 0
  br i1 %.not1012.i, label %bev_group_random_element_.exit, label %.lr.ph.i

.lr.ph.i:                                         ; preds = %7, %.lr.ph.i
  %.014.i = phi ptr [ %.0.i, %.lr.ph.i ], [ %.011.i, %7 ]
  %.0713.i = phi i32 [ %10, %.lr.ph.i ], [ %9, %7 ]
  %10 = add nsw i32 %.0713.i, -1
  %11 = getelementptr inbounds nuw i8, ptr %.014.i, i64 472
  %12 = load ptr, ptr %11, align 8
  %.0.i = load ptr, ptr %12, align 8
  %.not10.i = icmp eq i32 %10, 0
  br i1 %.not10.i, label %bev_group_random_element_.exit, label %.lr.ph.i, !llvm.loop !5

bev_group_random_element_.exit:                   ; preds = %.lr.ph.i, %7
  %.08.i = phi ptr [ %.011.i, %7 ], [ %.0.i, %.lr.ph.i ]
  %.not37 = icmp eq ptr %.08.i, null
  br i1 %.not37, label %.preheader, label %.lr.ph

.preheader:                                       ; preds = %26, %1, %bev_group_random_element_.exit
  %.08.i47 = phi ptr [ null, %bev_group_random_element_.exit ], [ null, %1 ], [ %.08.i, %26 ]
  %.0.lcssa = phi i8 [ 0, %bev_group_random_element_.exit ], [ 0, %1 ], [ %.1, %26 ]
  %.12040 = load ptr, ptr %0, align 8
  %13 = icmp ne ptr %.12040, null
  %14 = icmp ne ptr %.12040, %.08.i47
  %15 = and i1 %13, %14
  br i1 %15, label %.lr.ph43, label %._crit_edge

.lr.ph:                                           ; preds = %bev_group_random_element_.exit, %26
  %.039 = phi i8 [ %.1, %26 ], [ 0, %bev_group_random_element_.exit ]
  %.01938 = phi ptr [ %29, %26 ], [ %.08.i, %bev_group_random_element_.exit ]
  %16 = getelementptr inbounds nuw i8, ptr %.01938, i64 448
  %17 = load ptr, ptr %16, align 8
  %18 = icmp ne ptr %17, null
  %19 = load ptr, ptr getelementptr inbounds nuw (i8, ptr @evthread_lock_fns_, i64 24), align 8
  %20 = icmp ne ptr %19, null
  %or.cond.i = select i1 %18, i1 %20, i1 false
  br i1 %or.cond.i, label %EVLOCK_TRY_LOCK_.exit, label %EVLOCK_TRY_LOCK_.exit.thread

EVLOCK_TRY_LOCK_.exit:                            ; preds = %.lr.ph
  %21 = tail call i32 %19(i32 noundef 16, ptr noundef nonnull %17) #10
  %.not.i28.not = icmp eq i32 %21, 0
  br i1 %.not.i28.not, label %EVLOCK_TRY_LOCK_.exit.thread, label %26

EVLOCK_TRY_LOCK_.exit.thread:                     ; preds = %.lr.ph, %EVLOCK_TRY_LOCK_.exit
  tail call void @bufferevent_unsuspend_write_(ptr noundef nonnull %.01938, i16 noundef zeroext 4) #10
  %22 = load ptr, ptr %16, align 8
  %.not26 = icmp eq ptr %22, null
  br i1 %.not26, label %26, label %23

23:                                               ; preds = %EVLOCK_TRY_LOCK_.exit.thread
  %24 = load ptr, ptr getelementptr inbounds nuw (i8, ptr @evthread_lock_fns_, i64 32), align 8
  %25 = tail call i32 %24(i32 noundef 0, ptr noundef nonnull %22) #10
  br label %26

26:                                               ; preds = %EVLOCK_TRY_LOCK_.exit, %23, %EVLOCK_TRY_LOCK_.exit.thread
  %.1 = phi i8 [ %.039, %23 ], [ %.039, %EVLOCK_TRY_LOCK_.exit.thread ], [ 1, %EVLOCK_TRY_LOCK_.exit ]
  %27 = getelementptr inbounds nuw i8, ptr %.01938, i64 472
  %28 = load ptr, ptr %27, align 8
  %29 = load ptr, ptr %28, align 8
  %.not = icmp eq ptr %29, null
  br i1 %.not, label %.preheader, label %.lr.ph, !llvm.loop !9

.lr.ph43:                                         ; preds = %.preheader, %40
  %.12042 = phi ptr [ %.120, %40 ], [ %.12040, %.preheader ]
  %.241 = phi i8 [ %.3, %40 ], [ %.0.lcssa, %.preheader ]
  %30 = getelementptr inbounds nuw i8, ptr %.12042, i64 448
  %31 = load ptr, ptr %30, align 8
  %32 = icmp ne ptr %31, null
  %33 = load ptr, ptr getelementptr inbounds nuw (i8, ptr @evthread_lock_fns_, i64 24), align 8
  %34 = icmp ne ptr %33, null
  %or.cond.i29 = select i1 %32, i1 %34, i1 false
  br i1 %or.cond.i29, label %EVLOCK_TRY_LOCK_.exit32, label %EVLOCK_TRY_LOCK_.exit32.thread

EVLOCK_TRY_LOCK_.exit32:                          ; preds = %.lr.ph43
  %35 = tail call i32 %33(i32 noundef 16, ptr noundef nonnull %31) #10
  %.not.i31.not = icmp eq i32 %35, 0
  br i1 %.not.i31.not, label %EVLOCK_TRY_LOCK_.exit32.thread, label %40

EVLOCK_TRY_LOCK_.exit32.thread:                   ; preds = %.lr.ph43, %EVLOCK_TRY_LOCK_.exit32
  tail call void @bufferevent_unsuspend_write_(ptr noundef nonnull %.12042, i16 noundef zeroext 4) #10
  %36 = load ptr, ptr %30, align 8
  %.not24 = icmp eq ptr %36, null
  br i1 %.not24, label %40, label %37

37:                                               ; preds = %EVLOCK_TRY_LOCK_.exit32.thread
  %38 = load ptr, ptr getelementptr inbounds nuw (i8, ptr @evthread_lock_fns_, i64 32), align 8
  %39 = tail call i32 %38(i32 noundef 0, ptr noundef nonnull %36) #10
  br label %40

40:                                               ; preds = %EVLOCK_TRY_LOCK_.exit32, %37, %EVLOCK_TRY_LOCK_.exit32.thread
  %.3 = phi i8 [ %.241, %37 ], [ %.241, %EVLOCK_TRY_LOCK_.exit32.thread ], [ 1, %EVLOCK_TRY_LOCK_.exit32 ]
  %41 = getelementptr inbounds nuw i8, ptr %.12042, i64 472
  %42 = load ptr, ptr %41, align 8
  %.120 = load ptr, ptr %42, align 8
  %43 = icmp ne ptr %.120, null
  %44 = icmp ne ptr %.120, %.08.i47
  %45 = and i1 %43, %44
  br i1 %45, label %.lr.ph43, label %._crit_edge, !llvm.loop !10

._crit_edge:                                      ; preds = %40, %.preheader
  %.2.lcssa = phi i8 [ %.0.lcssa, %.preheader ], [ %.3, %40 ]
  %46 = load i8, ptr %2, align 8
  %47 = shl nuw nsw i8 %.2.lcssa, 3
  %48 = and i8 %47, 8
  %49 = and i8 %46, -9
  %50 = or disjoint i8 %49, %48
  store i8 %50, ptr %2, align 8
  ret void
}